; Function Attrs: mustprogress nofree norecurse nosync nounwind willreturn memory(readwrite, argmem: none, inaccessiblemem: none) uwtable
define i32 @Aig_ManRandom(i32 noundef %0) local_unnamed_addr #16 {
  %.not = icmp eq i32 %0, 0
  %.pre = tail call align 4 ptr @llvm.threadlocal.address.p0(ptr align 4 @Aig_ManRandom.m_z)
  br i1 %.not, label %._crit_edge, label %2

._crit_edge:                                      ; preds = %1
  %.pre1 = tail call align 4 ptr @llvm.threadlocal.address.p0(ptr align 4 @Aig_ManRandom.m_w)
  br label %4

2:                                                ; preds = %1
  store i32 -578006775, ptr %.pre, align 4, !tbaa !30
  %3 = tail call align 4 ptr @llvm.threadlocal.address.p0(ptr align 4 @Aig_ManRandom.m_w)
  store i32 -2120863760, ptr %3, align 4, !tbaa !30
  br label %4

4:                                                ; preds = %._crit_edge, %2
  %.pre-phi2 = phi ptr [ %.pre1, %._crit_edge ], [ %3, %2 ]
  %5 = load i32, ptr %.pre, align 4, !tbaa !30
  %6 = and i32 %5, 65535
  %7 = mul nuw i32 %6, 36969
  %8 = lshr i32 %5, 16
  %9 = add nuw i32 %7, %8
  store i32 %9, ptr %.pre, align 4, !tbaa !30
  %10 = load i32, ptr %.pre-phi2, align 4, !tbaa !30
  %11 = and i32 %10, 65535
  %12 = mul nuw nsw i32 %11, 18000
  %13 = lshr i32 %10, 16
  %14 = add nuw nsw i32 %12, %13
  store i32 %14, ptr %.pre-phi2, align 4, !tbaa !30
  %15 = shl i32 %9, 16
  %16 = add i32 %14, %15
  ret i32 %16
}